target datalayout = "e-m:e-p270:32:32-p271:32:32-p272:64:64-i64:64-i128:128-f80:128-n8:16:32:64-S128"
target triple = "x86_64-pc-linux-gnu"

%struct.Parser = type { ptr, ptr, i32, i32, i32, ptr, ptr, ptr, i32, i32, ptr, i32, ptr, i32, i32, i32, i32, i32, %struct.growable_comment_array, ptr, i32, i32, i32 }
%struct.growable_comment_array = type { ptr, i64, i64 }
%struct.tok_state = type { ptr, ptr, ptr, i32, ptr, ptr, ptr, ptr, i32, ptr, i32, i32, [100 x i32], i32, i32, ptr, ptr, i32, i32, i32, i32, i32, [200 x i8], [200 x i32], [200 x i32], ptr, [100 x i32], i32, i32, ptr, i32, ptr, ptr, ptr, ptr, ptr, ptr, ptr, ptr, i32, i32, ptr, i32, [150 x %struct._tokenizer_mode], i32, i32, i32, i32 }
%struct._tokenizer_mode = type { i32, i32, i32, i8, i32, i32, ptr, ptr, i32, i64, i64, i64, i64, ptr, i32, i32 }
%struct.Token = type { i32, ptr, i32, i32, i32, i32, i32, ptr, ptr }

@PyExc_SyntaxError = external global ptr, align 8
@.str.2 = private unnamed_addr constant [29 x i8] c"unexpected EOF while parsing\00", align 1
@PyExc_IndentationError = external global ptr, align 8
@.str.15 = private unnamed_addr constant [40 x i8] c"error at start before reading any input\00", align 1
@.str.16 = private unnamed_addr constant [18 x i8] c"unexpected indent\00", align 1
@.str.17 = private unnamed_addr constant [20 x i8] c"unexpected unindent\00", align 1
@.str.18 = private unnamed_addr constant [15 x i8] c"invalid syntax\00", align 1
@.str.20 = private unnamed_addr constant [22 x i8] c"'%c' was never closed\00", align 1

; Function Attrs: inlinehint nounwind uwtable
define internal void @raise_unclosed_parentheses_error(ptr noundef %0) #4 {
  %2 = alloca ptr, align 8
  %3 = alloca i32, align 4
  %4 = alloca i32, align 4
  store ptr %0, ptr %2, align 8, !tbaa !10
  call void @llvm.lifetime.start.p0(i64 4, ptr %3) #7
  %5 = load ptr, ptr %2, align 8, !tbaa !10
  %6 = getelementptr inbounds nuw %struct.Parser, ptr %5, i32 0, i32 0
  %7 = load ptr, ptr %6, align 8, !tbaa !23
  %8 = getelementptr inbounds nuw %struct.tok_state, ptr %7, i32 0, i32 23
  %9 = load ptr, ptr %2, align 8, !tbaa !10
  %10 = getelementptr inbounds nuw %struct.Parser, ptr %9, i32 0, i32 0
  %11 = load ptr, ptr %10, align 8, !tbaa !23
  %12 = getelementptr inbounds nuw %struct.tok_state, ptr %11, i32 0, i32 21
  %13 = load i32, ptr %12, align 8, !tbaa !27
  %14 = sub i32 %13, 1
  %15 = sext i32 %14 to i64
  %16 = getelementptr [200 x i32], ptr %8, i64 0, i64 %15
  %17 = load i32, ptr %16, align 4, !tbaa !31
  store i32 %17, ptr %3, align 4, !tbaa !31
  call void @llvm.lifetime.start.p0(i64 4, ptr %4) #7
  %18 = load ptr, ptr %2, align 8, !tbaa !10
  %19 = getelementptr inbounds nuw %struct.Parser, ptr %18, i32 0, i32 0
  %20 = load ptr, ptr %19, align 8, !tbaa !23
  %21 = getelementptr inbounds nuw %struct.tok_state, ptr %20, i32 0, i32 24
  %22 = load ptr, ptr %2, align 8, !tbaa !10
  %23 = getelementptr inbounds nuw %struct.Parser, ptr %22, i32 0, i32 0
  %24 = load ptr, ptr %23, align 8, !tbaa !23
  %25 = getelementptr inbounds nuw %struct.tok_state, ptr %24, i32 0, i32 21
  %26 = load i32, ptr %25, align 8, !tbaa !27
  %27 = sub i32 %26, 1
  %28 = sext i32 %27 to i64
  %29 = getelementptr [200 x i32], ptr %21, i64 0, i64 %28
  %30 = load i32, ptr %29, align 4, !tbaa !31
  store i32 %30, ptr %4, align 4, !tbaa !31
  %31 = load ptr, ptr %2, align 8, !tbaa !10
  %32 = load ptr, ptr @PyExc_SyntaxError, align 8, !tbaa !4
  %33 = load i32, ptr %3, align 4, !tbaa !31
  %34 = sext i32 %33 to i64
  %35 = load i32, ptr %4, align 4, !tbaa !31
  %36 = sext i32 %35 to i64
  %37 = load i32, ptr %3, align 4, !tbaa !31
  %38 = sext i32 %37 to i64
  %39 = load ptr, ptr %2, align 8, !tbaa !10
  %40 = getelementptr inbounds nuw %struct.Parser, ptr %39, i32 0, i32 0
  %41 = load ptr, ptr %40, align 8, !tbaa !23
  %42 = getelementptr inbounds nuw %struct.tok_state, ptr %41, i32 0, i32 22
  %43 = load ptr, ptr %2, align 8, !tbaa !10
  %44 = getelementptr inbounds nuw %struct.Parser, ptr %43, i32 0, i32 0
  %45 = load ptr, ptr %44, align 8, !tbaa !23
  %46 = getelementptr inbounds nuw %struct.tok_state, ptr %45, i32 0, i32 21
  %47 = load i32, ptr %46, align 8, !tbaa !27
  %48 = sub i32 %47, 1
  %49 = sext i32 %48 to i64
  %50 = getelementptr [200 x i8], ptr %42, i64 0, i64 %49
  %51 = load i8, ptr %50, align 1, !tbaa !9
  %52 = sext i8 %51 to i32
  %53 = call ptr (ptr, ptr, i64, i64, i64, i64, ptr, ...) @RAISE_ERROR_KNOWN_LOCATION(ptr noundef %31, ptr noundef %32, i64 noundef %34, i64 noundef %36, i64 noundef %38, i64 noundef -1, ptr noundef @.str.20, i32 noundef %52)
  call void @llvm.lifetime.end.p0(i64 4, ptr %4) #7
  call void @llvm.lifetime.end.p0(i64 4, ptr %3) #7
  ret void
}

; Function Attrs: nounwind uwtable
define hidden void @_Pypegen_set_syntax_error(ptr noundef %0, ptr noundef %1) #0 {
  %3 = alloca ptr, align 8
  %4 = alloca ptr, align 8
  %5 = alloca i32, align 4
  store ptr %0, ptr %3, align 8, !tbaa !10
  store ptr %1, ptr %4, align 8, !tbaa !10
  %6 = call ptr @PyErr_Occurred()
  %7 = icmp ne ptr %6, null
  br i1 %7, label %8, label %35

8:                                                ; preds = %2
  call void @llvm.lifetime.start.p0(i64 4, ptr %5) #7
  %9 = load ptr, ptr %3, align 8, !tbaa !10
  %10 = getelementptr inbounds nuw %struct.Parser, ptr %9, i32 0, i32 0
  %11 = load ptr, ptr %10, align 8, !tbaa !23
  %12 = getelementptr inbounds nuw %struct.tok_state, ptr %11, i32 0, i32 8
  %13 = load i32, ptr %12, align 8, !tbaa !24
  %14 = icmp eq i32 %13, 16
  br i1 %14, label %22, label %15

15:                                               ; preds = %8
  %16 = load ptr, ptr %3, align 8, !tbaa !10
  %17 = getelementptr inbounds nuw %struct.Parser, ptr %16, i32 0, i32 0
  %18 = load ptr, ptr %17, align 8, !tbaa !23
  %19 = getelementptr inbounds nuw %struct.tok_state, ptr %18, i32 0, i32 8
  %20 = load i32, ptr %19, align 8, !tbaa !24
  %21 = icmp eq i32 %20, 10
  br label %22

22:                                               ; preds = %15, %8
  %23 = phi i1 [ true, %8 ], [ %21, %15 ]
  %24 = zext i1 %23 to i32
  store i32 %24, ptr %5, align 4, !tbaa !31
  %25 = load i32, ptr %5, align 4, !tbaa !31
  %26 = icmp ne i32 %25, 0
  br i1 %26, label %27, label %34

27:                                               ; preds = %22
  %28 = load ptr, ptr @PyExc_SyntaxError, align 8, !tbaa !4
  %29 = call i32 @PyErr_ExceptionMatches(ptr noundef %28)
  %30 = icmp ne i32 %29, 0
  br i1 %30, label %31, label %34

31:                                               ; preds = %27
  %32 = load ptr, ptr %3, align 8, !tbaa !10
  %33 = call i32 @_PyPegen_tokenize_full_source_to_check_for_errors(ptr noundef %32)
  br label %34

34:                                               ; preds = %31, %27, %22
  call void @llvm.lifetime.end.p0(i64 4, ptr %5) #7
  br label %111

35:                                               ; preds = %2
  %36 = load ptr, ptr %3, align 8, !tbaa !10
  %37 = getelementptr inbounds nuw %struct.Parser, ptr %36, i32 0, i32 3
  %38 = load i32, ptr %37, align 4, !tbaa !32
  %39 = icmp eq i32 %38, 0
  br i1 %39, label %40, label %44

40:                                               ; preds = %35
  %41 = load ptr, ptr %3, align 8, !tbaa !10
  %42 = load ptr, ptr @PyExc_SyntaxError, align 8, !tbaa !4
  %43 = call ptr (ptr, ptr, i32, ptr, ...) @_PyPegen_raise_error(ptr noundef %41, ptr noundef %42, i32 noundef 0, ptr noundef @.str.15)
  br label %44

44:                                               ; preds = %40, %35
  %45 = load ptr, ptr %4, align 8, !tbaa !10
  %46 = getelementptr inbounds nuw %struct.Token, ptr %45, i32 0, i32 0
  %47 = load i32, ptr %46, align 8, !tbaa !58
  %48 = icmp eq i32 %47, 64
  br i1 %48, label %49, label %70

49:                                               ; preds = %44
  %50 = load ptr, ptr %3, align 8, !tbaa !10
  %51 = getelementptr inbounds nuw %struct.Parser, ptr %50, i32 0, i32 0
  %52 = load ptr, ptr %51, align 8, !tbaa !23
  %53 = getelementptr inbounds nuw %struct.tok_state, ptr %52, i32 0, i32 8
  %54 = load i32, ptr %53, align 8, !tbaa !24
  %55 = icmp eq i32 %54, 11
  br i1 %55, label %56, label %70

56:                                               ; preds = %49
  %57 = load ptr, ptr %3, align 8, !tbaa !10
  %58 = getelementptr inbounds nuw %struct.Parser, ptr %57, i32 0, i32 0
  %59 = load ptr, ptr %58, align 8, !tbaa !23
  %60 = getelementptr inbounds nuw %struct.tok_state, ptr %59, i32 0, i32 21
  %61 = load i32, ptr %60, align 8, !tbaa !27
  %62 = icmp ne i32 %61, 0
  br i1 %62, label %63, label %65

63:                                               ; preds = %56
  %64 = load ptr, ptr %3, align 8, !tbaa !10
  call void @raise_unclosed_parentheses_error(ptr noundef %64)
  br label %69

65:                                               ; preds = %56
  %66 = load ptr, ptr %3, align 8, !tbaa !10
  %67 = load ptr, ptr @PyExc_SyntaxError, align 8, !tbaa !4
  %68 = call ptr (ptr, ptr, i32, ptr, ...) @_PyPegen_raise_error(ptr noundef %66, ptr noundef %67, i32 noundef 0, ptr noundef @.str.2)
  br label %69

69:                                               ; preds = %65, %63
  br label %111

70:                                               ; preds = %49, %44
  %71 = load ptr, ptr %4, align 8, !tbaa !10
  %72 = getelementptr inbounds nuw %struct.Token, ptr %71, i32 0, i32 0
  %73 = load i32, ptr %72, align 8, !tbaa !58
  %74 = icmp eq i32 %73, 5
  br i1 %74, label %80, label %75

75:                                               ; preds = %70
  %76 = load ptr, ptr %4, align 8, !tbaa !10
  %77 = getelementptr inbounds nuw %struct.Token, ptr %76, i32 0, i32 0
  %78 = load i32, ptr %77, align 8, !tbaa !58
  %79 = icmp eq i32 %78, 6
  br i1 %79, label %80, label %89

80:                                               ; preds = %75, %70
  %81 = load ptr, ptr %3, align 8, !tbaa !10
  %82 = load ptr, ptr @PyExc_IndentationError, align 8, !tbaa !4
  %83 = load ptr, ptr %4, align 8, !tbaa !10
  %84 = getelementptr inbounds nuw %struct.Token, ptr %83, i32 0, i32 0
  %85 = load i32, ptr %84, align 8, !tbaa !58
  %86 = icmp eq i32 %85, 5
  %87 = select i1 %86, ptr @.str.16, ptr @.str.17
  %88 = call ptr (ptr, ptr, i32, ptr, ...) @_PyPegen_raise_error(ptr noundef %81, ptr noundef %82, i32 noundef 0, ptr noundef %87)
  br label %111

89:                                               ; preds = %75
  %90 = load ptr, ptr %3, align 8, !tbaa !10
  %91 = load ptr, ptr @PyExc_SyntaxError, align 8, !tbaa !4
  %92 = load ptr, ptr %4, align 8, !tbaa !10
  %93 = getelementptr inbounds nuw %struct.Token, ptr %92, i32 0, i32 3
  %94 = load i32, ptr %93, align 4, !tbaa !41
  %95 = sext i32 %94 to i64
  %96 = load ptr, ptr %4, align 8, !tbaa !10
  %97 = getelementptr inbounds nuw %struct.Token, ptr %96, i32 0, i32 4
  %98 = load i32, ptr %97, align 8, !tbaa !36
  %99 = sext i32 %98 to i64
  %100 = load ptr, ptr %4, align 8, !tbaa !10
  %101 = getelementptr inbounds nuw %struct.Token, ptr %100, i32 0, i32 5
  %102 = load i32, ptr %101, align 4, !tbaa !42
  %103 = sext i32 %102 to i64
  %104 = load ptr, ptr %4, align 8, !tbaa !10
  %105 = getelementptr inbounds nuw %struct.Token, ptr %104, i32 0, i32 6
  %106 = load i32, ptr %105, align 8, !tbaa !40
  %107 = sext i32 %106 to i64
  %108 = call ptr (ptr, ptr, i64, i64, i64, i64, ptr, ...) @RAISE_ERROR_KNOWN_LOCATION(ptr noundef %90, ptr noundef %91, i64 noundef %95, i64 noundef %99, i64 noundef %103, i64 noundef %107, ptr noundef @.str.18)
  %109 = load ptr, ptr %3, align 8, !tbaa !10
  %110 = call i32 @_PyPegen_tokenize_full_source_to_check_for_errors(ptr noundef %109)
  br label %111

111:                                              ; preds = %89, %80, %69, %34
  ret void
}