; Function Attrs: nounwind uwtable
define hidden void @_Pypegen_set_syntax_error(ptr noundef %0, ptr noundef readonly captures(none) %1) local_unnamed_addr #0 {
  %3 = tail call ptr @PyErr_Occurred() #7
  %.not = icmp eq ptr %3, null
  br i1 %.not, label %12, label %4

4:                                                ; preds = %2
  %5 = load ptr, ptr %0, align 8, !tbaa !19
  %6 = getelementptr inbounds nuw i8, ptr %5, i64 64
  %7 = load i32, ptr %6, align 8, !tbaa !20
  switch i32 %7, label %68 [
    i32 16, label %8
    i32 10, label %8
  ]

8:                                                ; preds = %4, %4
  %9 = load ptr, ptr @PyExc_SyntaxError, align 8, !tbaa !4
  %10 = tail call i32 @PyErr_ExceptionMatches(ptr noundef %9) #7
  %.not22 = icmp eq i32 %10, 0
  br i1 %.not22, label %68, label %11

11:                                               ; preds = %8
  tail call fastcc void @_PyPegen_tokenize_full_source_to_check_for_errors(ptr noundef nonnull %0)
  br label %68

12:                                               ; preds = %2
  %13 = getelementptr inbounds nuw i8, ptr %0, i64 20
  %14 = load i32, ptr %13, align 4, !tbaa !29
  %15 = icmp eq i32 %14, 0
  br i1 %15, label %16, label %19

16:                                               ; preds = %12
  %17 = load ptr, ptr @PyExc_SyntaxError, align 8, !tbaa !4
  %18 = tail call ptr (ptr, ptr, i32, ptr, ...) @_PyPegen_raise_error(ptr noundef nonnull %0, ptr noundef %17, i32 noundef 0, ptr noundef nonnull @.str.15)
  br label %19

19:                                               ; preds = %16, %12
  %20 = load i32, ptr %1, align 8, !tbaa !52
  %21 = icmp eq i32 %20, 64
  br i1 %21, label %22, label %49

22:                                               ; preds = %19
  %23 = load ptr, ptr %0, align 8, !tbaa !19
  %24 = getelementptr inbounds nuw i8, ptr %23, i64 64
  %25 = load i32, ptr %24, align 8, !tbaa !20
  %26 = icmp eq i32 %25, 11
  br i1 %26, label %27, label %.thread

27:                                               ; preds = %22
  %28 = getelementptr inbounds nuw i8, ptr %23, i64 528
  %29 = load i32, ptr %28, align 8, !tbaa !24
  %.not21 = icmp eq i32 %29, 0
  br i1 %.not21, label %46, label %30

30:                                               ; preds = %27
  %31 = getelementptr inbounds nuw i8, ptr %23, i64 732
  %32 = add i32 %29, -1
  %33 = sext i32 %32 to i64
  %34 = getelementptr [200 x i32], ptr %31, i64 0, i64 %33
  %35 = load i32, ptr %34, align 4, !tbaa !25
  %36 = getelementptr inbounds nuw i8, ptr %23, i64 1532
  %37 = getelementptr [200 x i32], ptr %36, i64 0, i64 %33
  %38 = load i32, ptr %37, align 4, !tbaa !25
  %39 = load ptr, ptr @PyExc_SyntaxError, align 8, !tbaa !4
  %40 = sext i32 %35 to i64
  %41 = sext i32 %38 to i64
  %42 = getelementptr inbounds nuw i8, ptr %23, i64 532
  %43 = getelementptr [200 x i8], ptr %42, i64 0, i64 %33
  %44 = load i8, ptr %43, align 1, !tbaa !9
  %45 = sext i8 %44 to i32
  tail call void (ptr, ptr, i64, i64, i64, i64, ptr, ...) @RAISE_ERROR_KNOWN_LOCATION(ptr noundef nonnull %0, ptr noundef %39, i64 noundef %40, i64 noundef %41, i64 noundef %40, i64 noundef -1, ptr noundef nonnull @.str.20, i32 noundef %45)
  br label %68

46:                                               ; preds = %27
  %47 = load ptr, ptr @PyExc_SyntaxError, align 8, !tbaa !4
  %48 = tail call ptr (ptr, ptr, i32, ptr, ...) @_PyPegen_raise_error(ptr noundef nonnull %0, ptr noundef %47, i32 noundef 0, ptr noundef nonnull @.str.2)
  br label %68

49:                                               ; preds = %19
  %.off = add i32 %20, -5
  %switch = icmp ult i32 %.off, 2
  br i1 %switch, label %50, label %.thread

50:                                               ; preds = %49
  %51 = load ptr, ptr @PyExc_IndentationError, align 8, !tbaa !4
  %52 = icmp eq i32 %20, 5
  %53 = select i1 %52, ptr @.str.16, ptr @.str.17
  %54 = tail call ptr (ptr, ptr, i32, ptr, ...) @_PyPegen_raise_error(ptr noundef nonnull %0, ptr noundef %51, i32 noundef 0, ptr noundef nonnull %53)
  br label %68

.thread:                                          ; preds = %22, %49
  %55 = load ptr, ptr @PyExc_SyntaxError, align 8, !tbaa !4
  %56 = getelementptr inbounds nuw i8, ptr %1, i64 20
  %57 = load i32, ptr %56, align 4, !tbaa !39
  %58 = sext i32 %57 to i64
  %59 = getelementptr inbounds nuw i8, ptr %1, i64 24
  %60 = load i32, ptr %59, align 8, !tbaa !34
  %61 = sext i32 %60 to i64
  %62 = getelementptr inbounds nuw i8, ptr %1, i64 28
  %63 = load i32, ptr %62, align 4, !tbaa !40
  %64 = sext i32 %63 to i64
  %65 = getelementptr inbounds nuw i8, ptr %1, i64 32
  %66 = load i32, ptr %65, align 8, !tbaa !38
  %67 = sext i32 %66 to i64
  tail call void (ptr, ptr, i64, i64, i64, i64, ptr, ...) @RAISE_ERROR_KNOWN_LOCATION(ptr noundef nonnull %0, ptr noundef %55, i64 noundef %58, i64 noundef %61, i64 noundef %64, i64 noundef %67, ptr noundef nonnull @.str.18)
  tail call fastcc void @_PyPegen_tokenize_full_source_to_check_for_errors(ptr noundef nonnull %0)
  br label %68

68:                                               ; preds = %4, %8, %11, %30, %46, %.thread, %50
  ret void
}